; ModuleID = '14/453.c'
source_filename = "14/453.c"
target datalayout = "e-m:e-p270:32:32-p271:32:32-p272:64:64-i64:64-f80:128-n8:16:32:64-S128"
target triple = "x86_64-pc-linux-gnu"

%struct.student = type { i32, i32 }

@.str = private unnamed_addr constant [3 x i8] c"%d\00", align 1
@.str.1 = private unnamed_addr constant [9 x i8] c"%d %d %d\00", align 1
@person = common dso_local global [99999 x %struct.student] zeroinitializer, align 16
@.str.2 = private unnamed_addr constant [7 x i8] c"%d %d\0A\00", align 1
@.str.3 = private unnamed_addr constant [6 x i8] c"%d %d\00", align 1

; Function Attrs: noinline nounwind uwtable
define dso_local i32 @main() #0 {
  %1 = alloca i32, align 4
  %2 = alloca i32, align 4
  %3 = alloca i32, align 4
  %4 = alloca i32, align 4
  %5 = alloca i32, align 4
  %6 = alloca i32, align 4
  %7 = alloca i32, align 4
  %8 = alloca %struct.student, align 4
  %9 = alloca %struct.student, align 4
  store i32 0, i32* %1, align 4
  %10 = call i32 (i8*, ...) @__isoc99_scanf(i8* getelementptr inbounds ([3 x i8], [3 x i8]* @.str, i64 0, i64 0), i32* %2)
  store i32 2, i32* %3, align 4
  br label %11

11:                                               ; preds = %27, %0
  %12 = load i32, i32* %3, align 4
  %13 = icmp sge i32 %12, 0
  br i1 %13, label %14, label %30

14:                                               ; preds = %11
  %15 = load i32, i32* %3, align 4
  %16 = sext i32 %15 to i64
  %17 = getelementptr inbounds [99999 x %struct.student], [99999 x %struct.student]* @person, i64 0, i64 %16
  %18 = getelementptr inbounds %struct.student, %struct.student* %17, i32 0, i32 0
  %19 = call i32 (i8*, ...) @__isoc99_scanf(i8* getelementptr inbounds ([9 x i8], [9 x i8]* @.str.1, i64 0, i64 0), i32* %18, i32* %6, i32* %7)
  %20 = load i32, i32* %6, align 4
  %21 = load i32, i32* %7, align 4
  %22 = add nsw i32 %20, %21
  %23 = load i32, i32* %3, align 4
  %24 = sext i32 %23 to i64
  %25 = getelementptr inbounds [99999 x %struct.student], [99999 x %struct.student]* @person, i64 0, i64 %24
  %26 = getelementptr inbounds %struct.student, %struct.student* %25, i32 0, i32 1
  store i32 %22, i32* %26, align 4
  br label %27

27:                                               ; preds = %14
  %28 = load i32, i32* %3, align 4
  %29 = add nsw i32 %28, -1
  store i32 %29, i32* %3, align 4
  br label %11

30:                                               ; preds = %11
  store i32 3, i32* %3, align 4
  br label %31

31:                                               ; preds = %100, %30
  %32 = load i32, i32* %3, align 4
  %33 = load i32, i32* %2, align 4
  %34 = sub nsw i32 %33, 1
  %35 = icmp sle i32 %32, %34
  br i1 %35, label %36, label %103

36:                                               ; preds = %31
  %37 = load i32, i32* %3, align 4
  %38 = sext i32 %37 to i64
  %39 = getelementptr inbounds [99999 x %struct.student], [99999 x %struct.student]* @person, i64 0, i64 %38
  %40 = getelementptr inbounds %struct.student, %struct.student* %39, i32 0, i32 0
  %41 = call i32 (i8*, ...) @__isoc99_scanf(i8* getelementptr inbounds ([9 x i8], [9 x i8]* @.str.1, i64 0, i64 0), i32* %40, i32* %6, i32* %7)
  %42 = load i32, i32* %6, align 4
  %43 = load i32, i32* %7, align 4
  %44 = add nsw i32 %42, %43
  %45 = load i32, i32* %3, align 4
  %46 = sext i32 %45 to i64
  %47 = getelementptr inbounds [99999 x %struct.student], [99999 x %struct.student]* @person, i64 0, i64 %46
  %48 = getelementptr inbounds %struct.student, %struct.student* %47, i32 0, i32 1
  store i32 %44, i32* %48, align 4
  %49 = load i32, i32* %3, align 4
  %50 = sext i32 %49 to i64
  %51 = getelementptr inbounds [99999 x %struct.student], [99999 x %struct.student]* @person, i64 0, i64 %50
  %52 = getelementptr inbounds %struct.student, %struct.student* %51, i32 0, i32 1
  %53 = load i32, i32* %52, align 4
  store i32 %53, i32* %5, align 4
  %54 = load i32, i32* %5, align 4
  %55 = load i32, i32* getelementptr inbounds ([99999 x %struct.student], [99999 x %struct.student]* @person, i64 0, i64 0, i32 1), align 4
  %56 = icmp sgt i32 %54, %55
  br i1 %56, label %57, label %66

57:                                               ; preds = %36
  %58 = bitcast %struct.student* %8 to i8*
  call void @llvm.memcpy.p0i8.p0i8.i64(i8* align 4 %58, i8* align 16 bitcast ([99999 x %struct.student]* @person to i8*), i64 8, i1 false)
  %59 = bitcast %struct.student* %9 to i8*
  call void @llvm.memcpy.p0i8.p0i8.i64(i8* align 4 %59, i8* align 8 bitcast (%struct.student* getelementptr inbounds ([99999 x %struct.student], [99999 x %struct.student]* @person, i64 0, i64 1) to i8*), i64 8, i1 false)
  %60 = load i32, i32* %3, align 4
  %61 = sext i32 %60 to i64
  %62 = getelementptr inbounds [99999 x %struct.student], [99999 x %struct.student]* @person, i64 0, i64 %61
  %63 = bitcast %struct.student* %62 to i8*
  call void @llvm.memcpy.p0i8.p0i8.i64(i8* align 16 bitcast ([99999 x %struct.student]* @person to i8*), i8* align 8 %63, i64 8, i1 false)
  %64 = bitcast %struct.student* %8 to i8*
  call void @llvm.memcpy.p0i8.p0i8.i64(i8* align 8 bitcast (%struct.student* getelementptr inbounds ([99999 x %struct.student], [99999 x %struct.student]* @person, i64 0, i64 1) to i8*), i8* align 4 %64, i64 8, i1 false)
  %65 = bitcast %struct.student* %9 to i8*
  call void @llvm.memcpy.p0i8.p0i8.i64(i8* align 16 bitcast (%struct.student* getelementptr inbounds ([99999 x %struct.student], [99999 x %struct.student]* @person, i64 0, i64 2) to i8*), i8* align 4 %65, i64 8, i1 false)
  br label %100

66:                                               ; preds = %36
  %67 = load i32, i32* %5, align 4
  %68 = load i32, i32* getelementptr inbounds ([99999 x %struct.student], [99999 x %struct.student]* @person, i64 0, i64 0, i32 1), align 4
  %69 = icmp sle i32 %67, %68
  br i1 %69, label %70, label %81

70:                                               ; preds = %66
  %71 = load i32, i32* %5, align 4
  %72 = load i32, i32* getelementptr inbounds ([99999 x %struct.student], [99999 x %struct.student]* @person, i64 0, i64 1, i32 1), align 4
  %73 = icmp sgt i32 %71, %72
  br i1 %73, label %74, label %81

74:                                               ; preds = %70
  %75 = bitcast %struct.student* %8 to i8*
  call void @llvm.memcpy.p0i8.p0i8.i64(i8* align 4 %75, i8* align 8 bitcast (%struct.student* getelementptr inbounds ([99999 x %struct.student], [99999 x %struct.student]* @person, i64 0, i64 1) to i8*), i64 8, i1 false)
  %76 = load i32, i32* %3, align 4
  %77 = sext i32 %76 to i64
  %78 = getelementptr inbounds [99999 x %struct.student], [99999 x %struct.student]* @person, i64 0, i64 %77
  %79 = bitcast %struct.student* %78 to i8*
  call void @llvm.memcpy.p0i8.p0i8.i64(i8* align 8 bitcast (%struct.student* getelementptr inbounds ([99999 x %struct.student], [99999 x %struct.student]* @person, i64 0, i64 1) to i8*), i8* align 8 %79, i64 8, i1 false)
  %80 = bitcast %struct.student* %8 to i8*
  call void @llvm.memcpy.p0i8.p0i8.i64(i8* align 16 bitcast (%struct.student* getelementptr inbounds ([99999 x %struct.student], [99999 x %struct.student]* @person, i64 0, i64 2) to i8*), i8* align 4 %80, i64 8, i1 false)
  br label %100

81:                                               ; preds = %70, %66
  %82 = load i32, i32* %5, align 4
  %83 = load i32, i32* getelementptr inbounds ([99999 x %struct.student], [99999 x %struct.student]* @person, i64 0, i64 1, i32 1), align 4
  %84 = icmp sle i32 %82, %83
  br i1 %84, label %85, label %94

85:                                               ; preds = %81
  %86 = load i32, i32* %5, align 4
  %87 = load i32, i32* getelementptr inbounds ([99999 x %struct.student], [99999 x %struct.student]* @person, i64 0, i64 2, i32 1), align 4
  %88 = icmp sgt i32 %86, %87
  br i1 %88, label %89, label %94

89:                                               ; preds = %85
  %90 = load i32, i32* %3, align 4
  %91 = sext i32 %90 to i64
  %92 = getelementptr inbounds [99999 x %struct.student], [99999 x %struct.student]* @person, i64 0, i64 %91
  %93 = bitcast %struct.student* %92 to i8*
  call void @llvm.memcpy.p0i8.p0i8.i64(i8* align 16 bitcast (%struct.student* getelementptr inbounds ([99999 x %struct.student], [99999 x %struct.student]* @person, i64 0, i64 2) to i8*), i8* align 8 %93, i64 8, i1 false)
  br label %100

94:                                               ; preds = %85, %81
  %95 = load i32, i32* %5, align 4
  %96 = load i32, i32* getelementptr inbounds ([99999 x %struct.student], [99999 x %struct.student]* @person, i64 0, i64 2, i32 1), align 4
  %97 = icmp slt i32 %95, %96
  br i1 %97, label %98, label %99

98:                                               ; preds = %94
  br label %100

99:                                               ; preds = %94
  br label %100

100:                                              ; preds = %99, %98, %89, %74, %57
  %101 = load i32, i32* %3, align 4
  %102 = add nsw i32 %101, 1
  store i32 %102, i32* %3, align 4
  br label %31

103:                                              ; preds = %31
  %104 = load i32, i32* getelementptr inbounds ([99999 x %struct.student], [99999 x %struct.student]* @person, i64 0, i64 0, i32 0), align 16
  %105 = load i32, i32* getelementptr inbounds ([99999 x %struct.student], [99999 x %struct.student]* @person, i64 0, i64 0, i32 1), align 4
  %106 = call i32 (i8*, ...) @printf(i8* getelementptr inbounds ([7 x i8], [7 x i8]* @.str.2, i64 0, i64 0), i32 %104, i32 %105)
  %107 = load i32, i32* getelementptr inbounds ([99999 x %struct.student], [99999 x %struct.student]* @person, i64 0, i64 1, i32 0), align 8
  %108 = load i32, i32* getelementptr inbounds ([99999 x %struct.student], [99999 x %struct.student]* @person, i64 0, i64 1, i32 1), align 4
  %109 = call i32 (i8*, ...) @printf(i8* getelementptr inbounds ([7 x i8], [7 x i8]* @.str.2, i64 0, i64 0), i32 %107, i32 %108)
  %110 = load i32, i32* getelementptr inbounds ([99999 x %struct.student], [99999 x %struct.student]* @person, i64 0, i64 2, i32 0), align 16
  %111 = load i32, i32* getelementptr inbounds ([99999 x %struct.student], [99999 x %struct.student]* @person, i64 0, i64 2, i32 1), align 4
  %112 = call i32 (i8*, ...) @printf(i8* getelementptr inbounds ([6 x i8], [6 x i8]* @.str.3, i64 0, i64 0), i32 %110, i32 %111)
  ret i32 0
}

declare dso_local i32 @__isoc99_scanf(i8*, ...) #1

; Function Attrs: argmemonly nounwind willreturn
declare void @llvm.memcpy.p0i8.p0i8.i64(i8* noalias nocapture writeonly, i8* noalias nocapture readonly, i64, i1 immarg) #2

declare dso_local i32 @printf(i8*, ...) #1


!llvm.module.flags = !{!0}
!llvm.ident = !{!1}

!0 = !{i32 1, !"wchar_size", i32 4}
!1 = !{!"clang version 10.0.0-4ubuntu1 "}
